target datalayout = "e-m:e-p270:32:32-p271:32:32-p272:64:64-i64:64-i128:128-f80:128-n8:16:32:64-S128"
target triple = "x86_64-pc-linux-gnu"

%struct.nstime_t = type { i64, i32 }
%struct._packet_info = type { ptr, ptr, i32, i32, %struct.nstime_t, %struct.nstime_t, %struct.nstime_t, i32, ptr, ptr, ptr, ptr, %struct._address, %struct._address, %struct._address, %struct._address, %struct._address, %struct._address, i32, ptr, i32, %struct.anon.0, i32, i32, i32, i32, ptr, i32, ptr, ptr, i16, i16, i32, i32, i16, i32, i32, ptr, ptr, ptr, i8, i8, i16, i16, i16, i32, i16, i16, ptr, ptr, ptr, ptr, ptr, i32 }
%struct._address = type { i32, i32, ptr, ptr }
%struct.anon.0 = type { i8, [3 x i8] }
%struct.mbim_conv_info = type { ptr, ptr, i32, i32, i32 }
%struct.mbim_pair_list = type { i32, i32 }

@hf_mbim_single_packet_filter_filter_size = internal global i32 0, align 4
@hf_mbim_single_packet_filter_packet_filter_offset = internal global i32 0, align 4
@hf_mbim_single_packet_filter_packet_mask_offset = internal global i32 0, align 4
@hf_mbim_single_packet_filter_filter_id = internal global i32 0, align 4
@hf_mbim_single_packet_filter_packet_filter = internal global i32 0, align 4
@hf_mbim_single_packet_filter_packet_mask = internal global i32 0, align 4
@hf_mbim_packet_filters_session_id = internal global i32 0, align 4
@hf_mbim_packet_filters_packet_filters_count = internal global i32 0, align 4
@hf_mbim_packet_filters_packet_filters_packet_filter_offset = internal global i32 0, align 4
@hf_mbim_packet_filters_packet_filters_packet_filter_size = internal global i32 0, align 4
@ett_mbim_pair_list = internal global i32 0, align 4
@preferred_mbim_extended_version = internal global i32 1, align 4
@.str.2565 = private unnamed_addr constant [23 x i8] c"Packet Filter Ref List\00", align 1
@.str.2566 = private unnamed_addr constant [26 x i8] c"Packet Filter Element #%u\00", align 1

; Function Attrs: nounwind uwtable
define internal void @mbim_dissect_single_packet_filter(ptr noundef %0, ptr noundef %1, ptr noundef %2, i32 noundef %3, ptr noundef %4) #0 {
  %6 = alloca ptr, align 8
  %7 = alloca ptr, align 8
  %8 = alloca ptr, align 8
  %9 = alloca i32, align 4
  %10 = alloca ptr, align 8
  %11 = alloca i32, align 4
  %12 = alloca i32, align 4
  %13 = alloca i32, align 4
  %14 = alloca i32, align 4
  store ptr %0, ptr %6, align 8
  store ptr %1, ptr %7, align 8
  store ptr %2, ptr %8, align 8
  store i32 %3, ptr %9, align 4
  store ptr %4, ptr %10, align 8
  %15 = load i32, ptr %9, align 4
  store i32 %15, ptr %11, align 4
  %16 = load ptr, ptr %8, align 8
  %17 = load i32, ptr @hf_mbim_single_packet_filter_filter_size, align 4
  %18 = load ptr, ptr %6, align 8
  %19 = load i32, ptr %9, align 4
  %20 = call ptr @proto_tree_add_item_ret_uint(ptr noundef %16, i32 noundef %17, ptr noundef %18, i32 noundef %19, i32 noundef 4, i32 noundef -2147483648, ptr noundef %12)
  %21 = load i32, ptr %9, align 4
  %22 = add i32 %21, 4
  store i32 %22, ptr %9, align 4
  %23 = load ptr, ptr %8, align 8
  %24 = load i32, ptr @hf_mbim_single_packet_filter_packet_filter_offset, align 4
  %25 = load ptr, ptr %6, align 8
  %26 = load i32, ptr %9, align 4
  %27 = call ptr @proto_tree_add_item_ret_uint(ptr noundef %23, i32 noundef %24, ptr noundef %25, i32 noundef %26, i32 noundef 4, i32 noundef -2147483648, ptr noundef %13)
  %28 = load i32, ptr %9, align 4
  %29 = add i32 %28, 4
  store i32 %29, ptr %9, align 4
  %30 = load ptr, ptr %8, align 8
  %31 = load i32, ptr @hf_mbim_single_packet_filter_packet_mask_offset, align 4
  %32 = load ptr, ptr %6, align 8
  %33 = load i32, ptr %9, align 4
  %34 = call ptr @proto_tree_add_item_ret_uint(ptr noundef %30, i32 noundef %31, ptr noundef %32, i32 noundef %33, i32 noundef 4, i32 noundef -2147483648, ptr noundef %14)
  %35 = load i32, ptr %9, align 4
  %36 = add i32 %35, 4
  store i32 %36, ptr %9, align 4
  %37 = load ptr, ptr %10, align 8
  %38 = getelementptr inbounds %struct.mbim_conv_info, ptr %37, i32 0, i32 4
  %39 = load i32, ptr %38, align 8
  %40 = icmp uge i32 %39, 3
  br i1 %40, label %49, label %41

41:                                               ; preds = %5
  %42 = load ptr, ptr %10, align 8
  %43 = getelementptr inbounds %struct.mbim_conv_info, ptr %42, i32 0, i32 4
  %44 = load i32, ptr %43, align 8
  %45 = icmp eq i32 %44, 0
  br i1 %45, label %46, label %50

46:                                               ; preds = %41
  %47 = load i32, ptr @preferred_mbim_extended_version, align 4
  %48 = icmp sge i32 %47, 3
  br i1 %48, label %49, label %50

49:                                               ; preds = %46, %5
  br i1 true, label %51, label %57

50:                                               ; preds = %46, %41
  br i1 false, label %51, label %57

51:                                               ; preds = %50, %49
  %52 = load ptr, ptr %8, align 8
  %53 = load i32, ptr @hf_mbim_single_packet_filter_filter_id, align 4
  %54 = load ptr, ptr %6, align 8
  %55 = load i32, ptr %9, align 4
  %56 = call ptr @proto_tree_add_item(ptr noundef %52, i32 noundef %53, ptr noundef %54, i32 noundef %55, i32 noundef 4, i32 noundef -2147483648)
  br label %57

57:                                               ; preds = %51, %50, %49
  %58 = load i32, ptr %12, align 4
  %59 = icmp ne i32 %58, 0
  br i1 %59, label %60, label %85

60:                                               ; preds = %57
  %61 = load i32, ptr %13, align 4
  %62 = icmp ne i32 %61, 0
  br i1 %62, label %63, label %72

63:                                               ; preds = %60
  %64 = load ptr, ptr %8, align 8
  %65 = load i32, ptr @hf_mbim_single_packet_filter_packet_filter, align 4
  %66 = load ptr, ptr %6, align 8
  %67 = load i32, ptr %11, align 4
  %68 = load i32, ptr %13, align 4
  %69 = add i32 %67, %68
  %70 = load i32, ptr %12, align 4
  %71 = call ptr @proto_tree_add_item(ptr noundef %64, i32 noundef %65, ptr noundef %66, i32 noundef %69, i32 noundef %70, i32 noundef 0)
  br label %72

72:                                               ; preds = %63, %60
  %73 = load i32, ptr %14, align 4
  %74 = icmp ne i32 %73, 0
  br i1 %74, label %75, label %84

75:                                               ; preds = %72
  %76 = load ptr, ptr %8, align 8
  %77 = load i32, ptr @hf_mbim_single_packet_filter_packet_mask, align 4
  %78 = load ptr, ptr %6, align 8
  %79 = load i32, ptr %11, align 4
  %80 = load i32, ptr %14, align 4
  %81 = add i32 %79, %80
  %82 = load i32, ptr %12, align 4
  %83 = call ptr @proto_tree_add_item(ptr noundef %76, i32 noundef %77, ptr noundef %78, i32 noundef %81, i32 noundef %82, i32 noundef 0)
  br label %84

84:                                               ; preds = %75, %72
  br label %85

85:                                               ; preds = %84, %57
  ret void
}

; Function Attrs: nounwind uwtable
define internal void @mbim_dissect_packet_filters(ptr noundef %0, ptr noundef %1, ptr noundef %2, i32 noundef %3, ptr noundef %4) #0 {
  %6 = alloca ptr, align 8
  %7 = alloca ptr, align 8
  %8 = alloca ptr, align 8
  %9 = alloca i32, align 4
  %10 = alloca ptr, align 8
  %11 = alloca ptr, align 8
  %12 = alloca i32, align 4
  %13 = alloca i32, align 4
  %14 = alloca i32, align 4
  %15 = alloca ptr, align 8
  %16 = alloca %struct.mbim_pair_list, align 4
  %17 = alloca ptr, align 8
  store ptr %0, ptr %6, align 8
  store ptr %1, ptr %7, align 8
  store ptr %2, ptr %8, align 8
  store i32 %3, ptr %9, align 4
  store ptr %4, ptr %10, align 8
  %18 = load i32, ptr %9, align 4
  store i32 %18, ptr %12, align 4
  %19 = load ptr, ptr %8, align 8
  %20 = load i32, ptr @hf_mbim_packet_filters_session_id, align 4
  %21 = load ptr, ptr %6, align 8
  %22 = load i32, ptr %9, align 4
  %23 = call ptr @proto_tree_add_item(ptr noundef %19, i32 noundef %20, ptr noundef %21, i32 noundef %22, i32 noundef 4, i32 noundef -2147483648)
  %24 = load i32, ptr %9, align 4
  %25 = add i32 %24, 4
  store i32 %25, ptr %9, align 4
  %26 = load ptr, ptr %8, align 8
  %27 = load i32, ptr @hf_mbim_packet_filters_packet_filters_count, align 4
  %28 = load ptr, ptr %6, align 8
  %29 = load i32, ptr %9, align 4
  %30 = call ptr @proto_tree_add_item_ret_uint(ptr noundef %26, i32 noundef %27, ptr noundef %28, i32 noundef %29, i32 noundef 4, i32 noundef -2147483648, ptr noundef %14)
  %31 = load i32, ptr %9, align 4
  %32 = add i32 %31, 4
  store i32 %32, ptr %9, align 4
  %33 = load i32, ptr %14, align 4
  %34 = icmp ne i32 %33, 0
  br i1 %34, label %35, label %119

35:                                               ; preds = %5
  %36 = load ptr, ptr %7, align 8
  %37 = getelementptr inbounds %struct._packet_info, ptr %36, i32 0, i32 50
  %38 = load ptr, ptr %37, align 8
  %39 = call noalias ptr @wmem_array_new(ptr noundef %38, i64 noundef 8)
  store ptr %39, ptr %15, align 8
  %40 = load ptr, ptr %8, align 8
  %41 = load ptr, ptr %6, align 8
  %42 = load i32, ptr %9, align 4
  %43 = load i32, ptr %14, align 4
  %44 = mul i32 8, %43
  %45 = load i32, ptr @ett_mbim_pair_list, align 4
  %46 = call ptr @proto_tree_add_subtree(ptr noundef %40, ptr noundef %41, i32 noundef %42, i32 noundef %44, i32 noundef %45, ptr noundef null, ptr noundef @.str.2565)
  store ptr %46, ptr %11, align 8
  store i32 0, ptr %13, align 4
  br label %47

47:                                               ; preds = %69, %35
  %48 = load i32, ptr %13, align 4
  %49 = load i32, ptr %14, align 4
  %50 = icmp ult i32 %48, %49
  br i1 %50, label %51, label %72

51:                                               ; preds = %47
  %52 = load ptr, ptr %11, align 8
  %53 = load i32, ptr @hf_mbim_packet_filters_packet_filters_packet_filter_offset, align 4
  %54 = load ptr, ptr %6, align 8
  %55 = load i32, ptr %9, align 4
  %56 = getelementptr inbounds %struct.mbim_pair_list, ptr %16, i32 0, i32 0
  %57 = call ptr @proto_tree_add_item_ret_uint(ptr noundef %52, i32 noundef %53, ptr noundef %54, i32 noundef %55, i32 noundef 4, i32 noundef -2147483648, ptr noundef %56)
  %58 = load i32, ptr %9, align 4
  %59 = add i32 %58, 4
  store i32 %59, ptr %9, align 4
  %60 = load ptr, ptr %11, align 8
  %61 = load i32, ptr @hf_mbim_packet_filters_packet_filters_packet_filter_size, align 4
  %62 = load ptr, ptr %6, align 8
  %63 = load i32, ptr %9, align 4
  %64 = getelementptr inbounds %struct.mbim_pair_list, ptr %16, i32 0, i32 1
  %65 = call ptr @proto_tree_add_item_ret_uint(ptr noundef %60, i32 noundef %61, ptr noundef %62, i32 noundef %63, i32 noundef 4, i32 noundef -2147483648, ptr noundef %64)
  %66 = load i32, ptr %9, align 4
  %67 = add i32 %66, 4
  store i32 %67, ptr %9, align 4
  %68 = load ptr, ptr %15, align 8
  call void @wmem_array_append(ptr noundef %68, ptr noundef %16, i32 noundef 1)
  br label %69

69:                                               ; preds = %51
  %70 = load i32, ptr %13, align 4
  %71 = add i32 %70, 1
  store i32 %71, ptr %13, align 4
  br label %47, !llvm.loop !12

72:                                               ; preds = %47
  store i32 0, ptr %13, align 4
  br label %73

73:                                               ; preds = %115, %72
  %74 = load i32, ptr %13, align 4
  %75 = load i32, ptr %14, align 4
  %76 = icmp ult i32 %74, %75
  br i1 %76, label %77, label %118

77:                                               ; preds = %73
  %78 = load ptr, ptr %15, align 8
  %79 = load i32, ptr %13, align 4
  %80 = call ptr @wmem_array_index(ptr noundef %78, i32 noundef %79)
  store ptr %80, ptr %17, align 8
  %81 = load ptr, ptr %17, align 8
  %82 = getelementptr inbounds %struct.mbim_pair_list, ptr %81, i32 0, i32 0
  %83 = load i32, ptr %82, align 4
  %84 = icmp ne i32 %83, 0
  br i1 %84, label %85, label %114

85:                                               ; preds = %77
  %86 = load ptr, ptr %17, align 8
  %87 = getelementptr inbounds %struct.mbim_pair_list, ptr %86, i32 0, i32 1
  %88 = load i32, ptr %87, align 4
  %89 = icmp ne i32 %88, 0
  br i1 %89, label %90, label %114

90:                                               ; preds = %85
  %91 = load ptr, ptr %8, align 8
  %92 = load ptr, ptr %6, align 8
  %93 = load i32, ptr %12, align 4
  %94 = load ptr, ptr %17, align 8
  %95 = getelementptr inbounds %struct.mbim_pair_list, ptr %94, i32 0, i32 0
  %96 = load i32, ptr %95, align 4
  %97 = add i32 %93, %96
  %98 = load ptr, ptr %17, align 8
  %99 = getelementptr inbounds %struct.mbim_pair_list, ptr %98, i32 0, i32 1
  %100 = load i32, ptr %99, align 4
  %101 = load i32, ptr @ett_mbim_pair_list, align 4
  %102 = load i32, ptr %13, align 4
  %103 = add i32 %102, 1
  %104 = call ptr (ptr, ptr, i32, i32, i32, ptr, ptr, ...) @proto_tree_add_subtree_format(ptr noundef %91, ptr noundef %92, i32 noundef %97, i32 noundef %100, i32 noundef %101, ptr noundef null, ptr noundef @.str.2566, i32 noundef %103)
  store ptr %104, ptr %11, align 8
  %105 = load ptr, ptr %6, align 8
  %106 = load ptr, ptr %7, align 8
  %107 = load ptr, ptr %11, align 8
  %108 = load i32, ptr %12, align 4
  %109 = load ptr, ptr %17, align 8
  %110 = getelementptr inbounds %struct.mbim_pair_list, ptr %109, i32 0, i32 0
  %111 = load i32, ptr %110, align 4
  %112 = add i32 %108, %111
  %113 = load ptr, ptr %10, align 8
  call void @mbim_dissect_single_packet_filter(ptr noundef %105, ptr noundef %106, ptr noundef %107, i32 noundef %112, ptr noundef %113)
  br label %114

114:                                              ; preds = %90, %85, %77
  br label %115

115:                                              ; preds = %114
  %116 = load i32, ptr %13, align 4
  %117 = add i32 %116, 1
  store i32 %117, ptr %13, align 4
  br label %73, !llvm.loop !13

118:                                              ; preds = %73
  br label %119

119:                                              ; preds = %118, %5
  ret void
}