; Function Attrs: nounwind uwtable
define internal fastcc void @mbim_dissect_packet_filters(ptr noundef %0, ptr noundef readonly captures(none) %1, ptr noundef %2, i32 noundef %3, ptr noundef readonly captures(none) %4) unnamed_addr #0 {
  %6 = alloca i32, align 4
  %7 = alloca i32, align 4
  %8 = alloca i32, align 4
  %9 = alloca i32, align 4
  %10 = alloca %struct.mbim_pair_list, align 4
  %11 = load i32, ptr @hf_mbim_packet_filters_session_id, align 4
  %12 = tail call ptr @proto_tree_add_item(ptr noundef %2, i32 noundef %11, ptr noundef %0, i32 noundef %3, i32 noundef 4, i32 noundef -2147483648) #10
  %13 = add i32 %3, 4
  %14 = load i32, ptr @hf_mbim_packet_filters_packet_filters_count, align 4
  %15 = call ptr @proto_tree_add_item_ret_uint(ptr noundef %2, i32 noundef %14, ptr noundef %0, i32 noundef %13, i32 noundef 4, i32 noundef -2147483648, ptr noundef nonnull %9) #10
  %16 = load i32, ptr %9, align 4
  %.not = icmp eq i32 %16, 0
  br i1 %.not, label %.loopexit, label %17

17:                                               ; preds = %5
  %18 = add i32 %3, 8
  %19 = getelementptr inbounds nuw i8, ptr %1, i64 408
  %20 = load ptr, ptr %19, align 8
  %21 = call noalias ptr @wmem_array_new(ptr noundef %20, i64 noundef 8) #10
  %22 = load i32, ptr %9, align 4
  %23 = shl i32 %22, 3
  %24 = load i32, ptr @ett_mbim_pair_list, align 4
  %25 = call ptr @proto_tree_add_subtree(ptr noundef %2, ptr noundef %0, i32 noundef %18, i32 noundef %23, i32 noundef %24, ptr noundef null, ptr noundef nonnull @.str.2565) #10
  %26 = load i32, ptr %9, align 4
  %.not50 = icmp eq i32 %26, 0
  br i1 %.not50, label %.loopexit, label %.lr.ph

.lr.ph:                                           ; preds = %17
  %27 = getelementptr inbounds nuw i8, ptr %10, i64 4
  br label %30

.preheader:                                       ; preds = %30
  %28 = icmp eq i32 %38, 0
  br i1 %28, label %.loopexit, label %.lr.ph49

.lr.ph49:                                         ; preds = %.preheader
  %29 = getelementptr inbounds nuw i8, ptr %4, i64 24
  br label %40

30:                                               ; preds = %.lr.ph, %30
  %.047 = phi i32 [ %18, %.lr.ph ], [ %36, %30 ]
  %.04146 = phi i32 [ 0, %.lr.ph ], [ %37, %30 ]
  %31 = load i32, ptr @hf_mbim_packet_filters_packet_filters_packet_filter_offset, align 4
  %32 = call ptr @proto_tree_add_item_ret_uint(ptr noundef %25, i32 noundef %31, ptr noundef %0, i32 noundef %.047, i32 noundef 4, i32 noundef -2147483648, ptr noundef nonnull %10) #10
  %33 = add i32 %.047, 4
  %34 = load i32, ptr @hf_mbim_packet_filters_packet_filters_packet_filter_size, align 4
  %35 = call ptr @proto_tree_add_item_ret_uint(ptr noundef %25, i32 noundef %34, ptr noundef %0, i32 noundef %33, i32 noundef 4, i32 noundef -2147483648, ptr noundef nonnull %27) #10
  %36 = add i32 %.047, 8
  call void @wmem_array_append(ptr noundef %21, ptr noundef nonnull %10, i32 noundef 1) #10
  %37 = add nuw i32 %.04146, 1
  %38 = load i32, ptr %9, align 4
  %39 = icmp ult i32 %37, %38
  br i1 %39, label %30, label %.preheader, !llvm.loop !16

40:                                               ; preds = %.lr.ph49, %86
  %.148 = phi i32 [ 0, %.lr.ph49 ], [ %87, %86 ]
  %41 = call ptr @wmem_array_index(ptr noundef %21, i32 noundef %.148) #10
  %42 = load i32, ptr %41, align 4
  %.not44 = icmp eq i32 %42, 0
  br i1 %.not44, label %86, label %43

43:                                               ; preds = %40
  %44 = getelementptr inbounds nuw i8, ptr %41, i64 4
  %45 = load i32, ptr %44, align 4
  %.not45 = icmp eq i32 %45, 0
  br i1 %.not45, label %86, label %46

46:                                               ; preds = %43
  %47 = add i32 %42, %3
  %48 = load i32, ptr @ett_mbim_pair_list, align 4
  %49 = add nuw i32 %.148, 1
  %50 = call ptr (ptr, ptr, i32, i32, i32, ptr, ptr, ...) @proto_tree_add_subtree_format(ptr noundef %2, ptr noundef %0, i32 noundef %47, i32 noundef %45, i32 noundef %48, ptr noundef null, ptr noundef nonnull @.str.2566, i32 noundef %49) #10
  %51 = load i32, ptr %41, align 4
  %52 = add i32 %51, %3
  call void @llvm.lifetime.start.p0(i64 4, ptr nonnull %6)
  call void @llvm.lifetime.start.p0(i64 4, ptr nonnull %7)
  call void @llvm.lifetime.start.p0(i64 4, ptr nonnull %8)
  %53 = load i32, ptr @hf_mbim_single_packet_filter_filter_size, align 4
  %54 = call ptr @proto_tree_add_item_ret_uint(ptr noundef %50, i32 noundef %53, ptr noundef %0, i32 noundef %52, i32 noundef 4, i32 noundef -2147483648, ptr noundef nonnull %6) #10
  %55 = add i32 %52, 4
  %56 = load i32, ptr @hf_mbim_single_packet_filter_packet_filter_offset, align 4
  %57 = call ptr @proto_tree_add_item_ret_uint(ptr noundef %50, i32 noundef %56, ptr noundef %0, i32 noundef %55, i32 noundef 4, i32 noundef -2147483648, ptr noundef nonnull %7) #10
  %58 = add i32 %52, 8
  %59 = load i32, ptr @hf_mbim_single_packet_filter_packet_mask_offset, align 4
  %60 = call ptr @proto_tree_add_item_ret_uint(ptr noundef %50, i32 noundef %59, ptr noundef %0, i32 noundef %58, i32 noundef 4, i32 noundef -2147483648, ptr noundef nonnull %8) #10
  %61 = add i32 %52, 12
  %62 = load i32, ptr %29, align 8
  %63 = icmp ugt i32 %62, 2
  br i1 %63, label %68, label %64

64:                                               ; preds = %46
  %65 = icmp eq i32 %62, 0
  %66 = load i32, ptr @preferred_mbim_extended_version, align 4
  %67 = icmp sgt i32 %66, 2
  %or.cond.i = select i1 %65, i1 %67, i1 false
  br i1 %or.cond.i, label %68, label %71

68:                                               ; preds = %64, %46
  %69 = load i32, ptr @hf_mbim_single_packet_filter_filter_id, align 4
  %70 = call ptr @proto_tree_add_item(ptr noundef %50, i32 noundef %69, ptr noundef %0, i32 noundef %61, i32 noundef 4, i32 noundef -2147483648) #10
  br label %71

71:                                               ; preds = %68, %64
  %72 = load i32, ptr %6, align 4
  %.not.i = icmp eq i32 %72, 0
  br i1 %.not.i, label %mbim_dissect_single_packet_filter.exit, label %73

73:                                               ; preds = %71
  %74 = load i32, ptr %7, align 4
  %.not27.i = icmp eq i32 %74, 0
  br i1 %.not27.i, label %79, label %75

75:                                               ; preds = %73
  %76 = load i32, ptr @hf_mbim_single_packet_filter_packet_filter, align 4
  %77 = add i32 %74, %52
  %78 = call ptr @proto_tree_add_item(ptr noundef %50, i32 noundef %76, ptr noundef %0, i32 noundef %77, i32 noundef %72, i32 noundef 0) #10
  br label %79

79:                                               ; preds = %75, %73
  %80 = load i32, ptr %8, align 4
  %.not28.i = icmp eq i32 %80, 0
  br i1 %.not28.i, label %mbim_dissect_single_packet_filter.exit, label %81

81:                                               ; preds = %79
  %82 = load i32, ptr @hf_mbim_single_packet_filter_packet_mask, align 4
  %83 = add i32 %80, %52
  %84 = load i32, ptr %6, align 4
  %85 = call ptr @proto_tree_add_item(ptr noundef %50, i32 noundef %82, ptr noundef %0, i32 noundef %83, i32 noundef %84, i32 noundef 0) #10
  br label %mbim_dissect_single_packet_filter.exit

mbim_dissect_single_packet_filter.exit:           ; preds = %71, %79, %81
  call void @llvm.lifetime.end.p0(i64 4, ptr nonnull %6)
  call void @llvm.lifetime.end.p0(i64 4, ptr nonnull %7)
  call void @llvm.lifetime.end.p0(i64 4, ptr nonnull %8)
  br label %86

86:                                               ; preds = %40, %43, %mbim_dissect_single_packet_filter.exit
  %87 = add nuw i32 %.148, 1
  %88 = load i32, ptr %9, align 4
  %89 = icmp ult i32 %87, %88
  br i1 %89, label %40, label %.loopexit, !llvm.loop !17

.loopexit:                                        ; preds = %86, %17, %.preheader, %5
  ret void
}